target datalayout = "e-m:e-p270:32:32-p271:32:32-p272:64:64-i64:64-i128:128-f80:128-n8:16:32:64-S128"
target triple = "x86_64-pc-linux-gnu"

%struct._zend_compiler_globals = type { %struct._zend_stack, ptr, ptr, i32, ptr, ptr, ptr, ptr, i8, i8, i8, i8, i8, %struct._zend_llist, ptr, i8, i8, i8, i8, ptr, i32, i32, %struct._zend_oparray_context, %struct._zend_file_context, ptr, %struct._zend_array, ptr, i64, i8, i8, i8, ptr, ptr, %struct._zend_stack, ptr, i32, ptr, ptr, i64, i64, ptr, ptr, ptr, ptr, i32, %struct._zend_stack }
%struct._zend_llist = type { ptr, ptr, i64, i64, ptr, i8, ptr }
%struct._zend_oparray_context = type { i32, i32, i32, i32, i32, i32, i32, ptr, ptr, i8 }
%struct._zend_file_context = type { %struct._zend_declarables, ptr, i8, i8, ptr, ptr, ptr, %struct._zend_array }
%struct._zend_declarables = type { i64 }
%struct._zend_array = type { %struct._zend_refcounted_h, %union.anon.0, i32, %union.anon.1, i32, i32, i32, i32, i64, ptr }
%struct._zend_refcounted_h = type { i32, %union.anon }
%union.anon = type { i32 }
%union.anon.0 = type { i32 }
%union.anon.1 = type { ptr }
%struct._zend_stack = type { i32, i32, i32, ptr }
%struct._zval_struct = type { %union._zend_value, %union.anon.3, %union.anon.6 }
%union._zend_value = type { i64 }
%union.anon.3 = type { i32 }
%union.anon.6 = type { i32 }
%struct._zend_op_array = type { i8, [3 x i8], i32, ptr, ptr, ptr, i32, i32, ptr, ptr, ptr, ptr, i32, i32, i32, i32, ptr, ptr, ptr, ptr, ptr, i32, i32, ptr, ptr, ptr, i32, i32, i32, i32, ptr, ptr, [6 x ptr] }
%struct._zend_op = type { ptr, %union._znode_op, %union._znode_op, %union._znode_op, i32, i32, i8, i8, i8, i8 }
%union._znode_op = type { i32 }
%struct._zend_string = type { %struct._zend_refcounted_h, i64, i64, [1 x i8] }
%struct.anon.4 = type { i8, i8, %union.anon.5 }
%union.anon.5 = type { i16 }
%struct._znode = type { i8, i8, %union.anon.14 }
%union.anon.14 = type { %struct._zval_struct }

@compiler_globals = global %struct._zend_compiler_globals zeroinitializer, align 8
@zend_new_interned_string = external global ptr, align 8

; Function Attrs: nounwind uwtable
define hidden ptr @zval_make_interned_string(ptr noundef %0) #0 {
  %2 = alloca i32, align 4
  %3 = alloca ptr, align 8
  store ptr %0, ptr %3, align 8
  %4 = load ptr, ptr @zend_new_interned_string, align 8
  %5 = load ptr, ptr %3, align 8
  %6 = getelementptr inbounds %struct._zval_struct, ptr %5, i32 0, i32 0
  %7 = load ptr, ptr %6, align 8
  %8 = call ptr %4(ptr noundef %7)
  %9 = load ptr, ptr %3, align 8
  %10 = getelementptr inbounds %struct._zval_struct, ptr %9, i32 0, i32 0
  store ptr %8, ptr %10, align 8
  %11 = load ptr, ptr %3, align 8
  %12 = getelementptr inbounds %struct._zval_struct, ptr %11, i32 0, i32 0
  %13 = load ptr, ptr %12, align 8
  %14 = getelementptr inbounds %struct._zend_string, ptr %13, i32 0, i32 0
  %15 = getelementptr inbounds %struct._zend_refcounted_h, ptr %14, i32 0, i32 1
  %16 = load i32, ptr %15, align 4
  store i32 %16, ptr %2, align 4
  %17 = load i32, ptr %2, align 4
  %18 = and i32 %17, 1008
  %19 = and i32 %18, 64
  %20 = icmp ne i32 %19, 0
  br i1 %20, label %21, label %25

21:                                               ; preds = %1
  %22 = load ptr, ptr %3, align 8
  %23 = getelementptr inbounds %struct._zval_struct, ptr %22, i32 0, i32 1
  %24 = getelementptr inbounds %struct.anon.4, ptr %23, i32 0, i32 1
  store i8 0, ptr %24, align 1
  br label %25

25:                                               ; preds = %21, %1
  %26 = load ptr, ptr %3, align 8
  %27 = getelementptr inbounds %struct._zval_struct, ptr %26, i32 0, i32 0
  %28 = load ptr, ptr %27, align 8
  ret ptr %28
}

; Function Attrs: nounwind uwtable
define internal void @zend_insert_literal(ptr noundef %0, ptr noundef %1, i32 noundef %2) #0 {
  %4 = alloca ptr, align 8
  %5 = alloca ptr, align 8
  %6 = alloca ptr, align 8
  %7 = alloca i32, align 4
  %8 = alloca ptr, align 8
  %9 = alloca ptr, align 8
  %10 = alloca ptr, align 8
  %11 = alloca ptr, align 8
  %12 = alloca i32, align 4
  store ptr %0, ptr %5, align 8
  store ptr %1, ptr %6, align 8
  store i32 %2, ptr %7, align 4
  %13 = load ptr, ptr %5, align 8
  %14 = getelementptr inbounds %struct._zend_op_array, ptr %13, i32 0, i32 30
  %15 = load ptr, ptr %14, align 8
  %16 = load i32, ptr %7, align 4
  %17 = sext i32 %16 to i64
  %18 = getelementptr inbounds %struct._zval_struct, ptr %15, i64 %17
  store ptr %18, ptr %8, align 8
  %19 = load ptr, ptr %6, align 8
  store ptr %19, ptr %4, align 8
  %20 = load ptr, ptr %4, align 8
  %21 = getelementptr inbounds %struct._zval_struct, ptr %20, i32 0, i32 1
  %22 = load i8, ptr %21, align 8
  %23 = zext i8 %22 to i32
  %24 = icmp eq i32 %23, 6
  br i1 %24, label %25, label %28

25:                                               ; preds = %3
  %26 = load ptr, ptr %6, align 8
  %27 = call ptr @zval_make_interned_string(ptr noundef %26)
  br label %28

28:                                               ; preds = %25, %3
  br label %29

29:                                               ; preds = %28
  %30 = load ptr, ptr %8, align 8
  store ptr %30, ptr %9, align 8
  %31 = load ptr, ptr %6, align 8
  store ptr %31, ptr %10, align 8
  %32 = load ptr, ptr %10, align 8
  %33 = getelementptr inbounds %struct._zval_struct, ptr %32, i32 0, i32 0
  %34 = load ptr, ptr %33, align 8
  store ptr %34, ptr %11, align 8
  %35 = load ptr, ptr %10, align 8
  %36 = getelementptr inbounds %struct._zval_struct, ptr %35, i32 0, i32 1
  %37 = load i32, ptr %36, align 8
  store i32 %37, ptr %12, align 4
  br label %38

38:                                               ; preds = %29
  %39 = load ptr, ptr %11, align 8
  %40 = load ptr, ptr %9, align 8
  %41 = getelementptr inbounds %struct._zval_struct, ptr %40, i32 0, i32 0
  store ptr %39, ptr %41, align 8
  %42 = load i32, ptr %12, align 4
  %43 = load ptr, ptr %9, align 8
  %44 = getelementptr inbounds %struct._zval_struct, ptr %43, i32 0, i32 1
  store i32 %42, ptr %44, align 8
  br label %45

45:                                               ; preds = %38
  br label %46

46:                                               ; preds = %45
  %47 = load ptr, ptr %8, align 8
  %48 = getelementptr inbounds %struct._zval_struct, ptr %47, i32 0, i32 2
  store i32 0, ptr %48, align 4
  ret void
}

; Function Attrs: nounwind uwtable
define internal i32 @zend_add_literal(ptr noundef %0) #0 {
  %2 = alloca ptr, align 8
  %3 = alloca ptr, align 8
  %4 = alloca i32, align 4
  store ptr %0, ptr %2, align 8
  %5 = load ptr, ptr getelementptr inbounds (%struct._zend_compiler_globals, ptr @compiler_globals, i32 0, i32 4), align 8
  store ptr %5, ptr %3, align 8
  %6 = load ptr, ptr %3, align 8
  %7 = getelementptr inbounds %struct._zend_op_array, ptr %6, i32 0, i32 28
  %8 = load i32, ptr %7, align 8
  store i32 %8, ptr %4, align 4
  %9 = load ptr, ptr %3, align 8
  %10 = getelementptr inbounds %struct._zend_op_array, ptr %9, i32 0, i32 28
  %11 = load i32, ptr %10, align 8
  %12 = add nsw i32 %11, 1
  store i32 %12, ptr %10, align 8
  %13 = load i32, ptr %4, align 4
  %14 = load i32, ptr getelementptr inbounds (%struct._zend_compiler_globals, ptr @compiler_globals, i32 0, i32 22, i32 2), align 8
  %15 = icmp sge i32 %13, %14
  br i1 %15, label %16, label %34

16:                                               ; preds = %1
  br label %17

17:                                               ; preds = %21, %16
  %18 = load i32, ptr %4, align 4
  %19 = load i32, ptr getelementptr inbounds (%struct._zend_compiler_globals, ptr @compiler_globals, i32 0, i32 22, i32 2), align 8
  %20 = icmp sge i32 %18, %19
  br i1 %20, label %21, label %24

21:                                               ; preds = %17
  %22 = load i32, ptr getelementptr inbounds (%struct._zend_compiler_globals, ptr @compiler_globals, i32 0, i32 22, i32 2), align 8
  %23 = add nsw i32 %22, 16
  store i32 %23, ptr getelementptr inbounds (%struct._zend_compiler_globals, ptr @compiler_globals, i32 0, i32 22, i32 2), align 8
  br label %17

24:                                               ; preds = %17
  %25 = load ptr, ptr %3, align 8
  %26 = getelementptr inbounds %struct._zend_op_array, ptr %25, i32 0, i32 30
  %27 = load ptr, ptr %26, align 8
  %28 = load i32, ptr getelementptr inbounds (%struct._zend_compiler_globals, ptr @compiler_globals, i32 0, i32 22, i32 2), align 8
  %29 = sext i32 %28 to i64
  %30 = mul i64 %29, 16
  %31 = call ptr @_erealloc(ptr noundef %27, i64 noundef %30) #19
  %32 = load ptr, ptr %3, align 8
  %33 = getelementptr inbounds %struct._zend_op_array, ptr %32, i32 0, i32 30
  store ptr %31, ptr %33, align 8
  br label %34

34:                                               ; preds = %24, %1
  %35 = load ptr, ptr %3, align 8
  %36 = load ptr, ptr %2, align 8
  %37 = load i32, ptr %4, align 4
  call void @zend_insert_literal(ptr noundef %35, ptr noundef %36, i32 noundef %37)
  %38 = load i32, ptr %4, align 4
  ret i32 %38
}

; Function Attrs: nounwind uwtable
define internal void @zend_handle_numeric_dim(ptr noundef %0, ptr noundef %1) #0 {
  %3 = alloca i1, align 1
  %4 = alloca ptr, align 8
  %5 = alloca i64, align 8
  %6 = alloca ptr, align 8
  %7 = alloca ptr, align 8
  %8 = alloca ptr, align 8
  %9 = alloca ptr, align 8
  %10 = alloca ptr, align 8
  %11 = alloca i64, align 8
  %12 = alloca i32, align 4
  %13 = alloca ptr, align 8
  store ptr %0, ptr %9, align 8
  store ptr %1, ptr %10, align 8
  %14 = load ptr, ptr %10, align 8
  %15 = getelementptr inbounds %struct._znode, ptr %14, i32 0, i32 2
  store ptr %15, ptr %8, align 8
  %16 = load ptr, ptr %8, align 8
  %17 = getelementptr inbounds %struct._zval_struct, ptr %16, i32 0, i32 1
  %18 = load i8, ptr %17, align 8
  %19 = zext i8 %18 to i32
  %20 = icmp eq i32 %19, 6
  br i1 %20, label %21, label %107

21:                                               ; preds = %2
  %22 = load ptr, ptr %10, align 8
  %23 = getelementptr inbounds %struct._znode, ptr %22, i32 0, i32 2
  %24 = getelementptr inbounds %struct._zval_struct, ptr %23, i32 0, i32 0
  %25 = load ptr, ptr %24, align 8
  %26 = getelementptr inbounds %struct._zend_string, ptr %25, i32 0, i32 3
  %27 = getelementptr inbounds [1 x i8], ptr %26, i64 0, i64 0
  %28 = load ptr, ptr %10, align 8
  %29 = getelementptr inbounds %struct._znode, ptr %28, i32 0, i32 2
  %30 = getelementptr inbounds %struct._zval_struct, ptr %29, i32 0, i32 0
  %31 = load ptr, ptr %30, align 8
  %32 = getelementptr inbounds %struct._zend_string, ptr %31, i32 0, i32 2
  %33 = load i64, ptr %32, align 8
  store ptr %27, ptr %4, align 8
  store i64 %33, ptr %5, align 8
  store ptr %11, ptr %6, align 8
  %34 = load ptr, ptr %4, align 8
  store ptr %34, ptr %7, align 8
  %35 = load ptr, ptr %7, align 8
  %36 = load i8, ptr %35, align 1
  %37 = sext i8 %36 to i32
  %38 = icmp sgt i32 %37, 57
  br i1 %38, label %39, label %40

39:                                               ; preds = %21
  store i1 false, ptr %3, align 1
  br label %70

40:                                               ; preds = %21
  %41 = load ptr, ptr %7, align 8
  %42 = load i8, ptr %41, align 1
  %43 = sext i8 %42 to i32
  %44 = icmp slt i32 %43, 48
  br i1 %44, label %45, label %65

45:                                               ; preds = %40
  %46 = load ptr, ptr %7, align 8
  %47 = load i8, ptr %46, align 1
  %48 = sext i8 %47 to i32
  %49 = icmp ne i32 %48, 45
  br i1 %49, label %50, label %51

50:                                               ; preds = %45
  store i1 false, ptr %3, align 1
  br label %70

51:                                               ; preds = %45
  %52 = load ptr, ptr %7, align 8
  %53 = getelementptr inbounds i8, ptr %52, i32 1
  store ptr %53, ptr %7, align 8
  %54 = load ptr, ptr %7, align 8
  %55 = load i8, ptr %54, align 1
  %56 = sext i8 %55 to i32
  %57 = icmp sgt i32 %56, 57
  br i1 %57, label %63, label %58

58:                                               ; preds = %51
  %59 = load ptr, ptr %7, align 8
  %60 = load i8, ptr %59, align 1
  %61 = sext i8 %60 to i32
  %62 = icmp slt i32 %61, 48
  br i1 %62, label %63, label %64

63:                                               ; preds = %58, %51
  store i1 false, ptr %3, align 1
  br label %70

64:                                               ; preds = %58
  br label %65

65:                                               ; preds = %64, %40
  %66 = load ptr, ptr %4, align 8
  %67 = load i64, ptr %5, align 8
  %68 = load ptr, ptr %6, align 8
  %69 = call zeroext i1 @_zend_handle_numeric_str_ex(ptr noundef %66, i64 noundef %67, ptr noundef %68) #15
  store i1 %69, ptr %3, align 1
  br label %70

70:                                               ; preds = %65, %63, %50, %39
  %71 = load i1, ptr %3, align 1
  br i1 %71, label %72, label %106

72:                                               ; preds = %70
  %73 = load ptr, ptr %10, align 8
  %74 = getelementptr inbounds %struct._znode, ptr %73, i32 0, i32 2
  %75 = call i32 @zend_add_literal(ptr noundef %74)
  store i32 %75, ptr %12, align 4
  %76 = load ptr, ptr %9, align 8
  %77 = getelementptr inbounds %struct._zend_op, ptr %76, i32 0, i32 2
  %78 = load i32, ptr %77, align 4
  %79 = add i32 %78, 1
  %80 = load i32, ptr %12, align 4
  %81 = icmp eq i32 %79, %80
  call void @llvm.assume(i1 %81)
  br label %82

82:                                               ; preds = %72
  %83 = load ptr, ptr getelementptr inbounds (%struct._zend_compiler_globals, ptr @compiler_globals, i32 0, i32 4), align 8
  %84 = getelementptr inbounds %struct._zend_op_array, ptr %83, i32 0, i32 30
  %85 = load ptr, ptr %84, align 8
  %86 = load ptr, ptr %9, align 8
  %87 = getelementptr inbounds %struct._zend_op, ptr %86, i32 0, i32 2
  %88 = load i32, ptr %87, align 4
  %89 = zext i32 %88 to i64
  %90 = getelementptr inbounds %struct._zval_struct, ptr %85, i64 %89
  store ptr %90, ptr %13, align 8
  %91 = load i64, ptr %11, align 8
  %92 = load ptr, ptr %13, align 8
  %93 = getelementptr inbounds %struct._zval_struct, ptr %92, i32 0, i32 0
  store i64 %91, ptr %93, align 8
  %94 = load ptr, ptr %13, align 8
  %95 = getelementptr inbounds %struct._zval_struct, ptr %94, i32 0, i32 1
  store i32 4, ptr %95, align 8
  br label %96

96:                                               ; preds = %82
  %97 = load ptr, ptr getelementptr inbounds (%struct._zend_compiler_globals, ptr @compiler_globals, i32 0, i32 4), align 8
  %98 = getelementptr inbounds %struct._zend_op_array, ptr %97, i32 0, i32 30
  %99 = load ptr, ptr %98, align 8
  %100 = load ptr, ptr %9, align 8
  %101 = getelementptr inbounds %struct._zend_op, ptr %100, i32 0, i32 2
  %102 = load i32, ptr %101, align 4
  %103 = zext i32 %102 to i64
  %104 = getelementptr inbounds %struct._zval_struct, ptr %99, i64 %103
  %105 = getelementptr inbounds %struct._zval_struct, ptr %104, i32 0, i32 2
  store i32 1, ptr %105, align 4
  br label %107

106:                                              ; preds = %70
  br label %107

107:                                              ; preds = %106, %96, %2
  ret void
}