; Function Attrs: nounwind uwtable
define internal fastcc void @zend_handle_numeric_dim(ptr nocapture noundef readonly %0, ptr nocapture noundef %1) unnamed_addr #0 {
  %3 = alloca i64, align 8
  %4 = getelementptr inbounds i8, ptr %1, i64 8
  %5 = getelementptr inbounds i8, ptr %1, i64 16
  %6 = load i8, ptr %5, align 8
  %7 = icmp eq i8 %6, 6
  br i1 %7, label %8, label %.critedge

8:                                                ; preds = %2
  %9 = load ptr, ptr %4, align 8
  %10 = getelementptr inbounds i8, ptr %9, i64 24
  %11 = getelementptr inbounds i8, ptr %9, i64 16
  %12 = load i64, ptr %11, align 8
  %13 = load i8, ptr %10, align 1
  %14 = icmp sgt i8 %13, 57
  br i1 %14, label %.critedge, label %15

15:                                               ; preds = %8
  %16 = icmp slt i8 %13, 48
  br i1 %16, label %17, label %22

17:                                               ; preds = %15
  %.not = icmp eq i8 %13, 45
  br i1 %.not, label %18, label %.critedge

18:                                               ; preds = %17
  %19 = getelementptr inbounds i8, ptr %9, i64 25
  %20 = load i8, ptr %19, align 1
  %21 = add i8 %20, -58
  %or.cond = icmp ult i8 %21, -10
  br i1 %or.cond, label %.critedge, label %22

22:                                               ; preds = %18, %15
  %23 = call zeroext i1 @_zend_handle_numeric_str_ex(ptr noundef nonnull %10, i64 noundef %12, ptr noundef nonnull %3) #30
  br i1 %23, label %24, label %.critedge

24:                                               ; preds = %22
  %25 = load ptr, ptr getelementptr inbounds (%struct._zend_compiler_globals, ptr @compiler_globals, i64 0, i32 4), align 8
  %26 = getelementptr inbounds i8, ptr %25, i64 168
  %27 = load i32, ptr %26, align 8
  %28 = add nsw i32 %27, 1
  store i32 %28, ptr %26, align 8
  %29 = load i32, ptr getelementptr inbounds (%struct._zend_compiler_globals, ptr @compiler_globals, i64 0, i32 22, i32 2), align 8
  %.not.i = icmp slt i32 %27, %29
  br i1 %.not.i, label %._crit_edge13.i, label %.lr.ph.i

._crit_edge13.i:                                  ; preds = %24
  %.phi.trans.insert.i = getelementptr i8, ptr %25, i64 176
  %.val.pre.i = load ptr, ptr %.phi.trans.insert.i, align 8
  br label %38

.lr.ph.i:                                         ; preds = %24, %.lr.ph.i
  %30 = phi i32 [ %31, %.lr.ph.i ], [ %29, %24 ]
  %31 = add nsw i32 %30, 16
  %.not9.i = icmp slt i32 %27, %31
  br i1 %.not9.i, label %32, label %.lr.ph.i

32:                                               ; preds = %.lr.ph.i
  store i32 %31, ptr getelementptr inbounds (%struct._zend_compiler_globals, ptr @compiler_globals, i64 0, i32 22, i32 2), align 8
  %33 = getelementptr inbounds i8, ptr %25, i64 176
  %34 = load ptr, ptr %33, align 8
  %35 = sext i32 %31 to i64
  %36 = shl nsw i64 %35, 4
  %37 = call ptr @_erealloc(ptr noundef %34, i64 noundef %36) #34
  store ptr %37, ptr %33, align 8
  br label %38

38:                                               ; preds = %32, %._crit_edge13.i
  %.val.i = phi ptr [ %.val.pre.i, %._crit_edge13.i ], [ %37, %32 ]
  %39 = load i8, ptr %5, align 8
  %40 = icmp eq i8 %39, 6
  %.pre.i.i = load ptr, ptr %4, align 8
  br i1 %40, label %41, label %zend_add_literal.exit

41:                                               ; preds = %38
  %42 = load ptr, ptr @zend_new_interned_string, align 8
  %43 = call ptr %42(ptr noundef %.pre.i.i) #30
  store ptr %43, ptr %4, align 8
  %44 = getelementptr inbounds i8, ptr %43, i64 4
  %45 = load i32, ptr %44, align 4
  %46 = and i32 %45, 64
  %.not.i.i.i = icmp eq i32 %46, 0
  br i1 %.not.i.i.i, label %zend_add_literal.exit, label %47

47:                                               ; preds = %41
  %48 = getelementptr inbounds i8, ptr %1, i64 17
  store i8 0, ptr %48, align 1
  br label %zend_add_literal.exit

zend_add_literal.exit:                            ; preds = %38, %41, %47
  %49 = phi ptr [ %43, %47 ], [ %43, %41 ], [ %.pre.i.i, %38 ]
  %50 = sext i32 %27 to i64
  %51 = getelementptr inbounds %struct._zval_struct, ptr %.val.i, i64 %50
  %52 = load i32, ptr %5, align 8
  store ptr %49, ptr %51, align 8
  %53 = getelementptr inbounds i8, ptr %51, i64 8
  store i32 %52, ptr %53, align 8
  %54 = getelementptr inbounds i8, ptr %51, i64 12
  store i32 0, ptr %54, align 4
  %55 = getelementptr inbounds i8, ptr %0, i64 12
  %56 = load i32, ptr %55, align 4
  %57 = add i32 %56, 1
  %58 = icmp eq i32 %57, %27
  call void @llvm.assume(i1 %58)
  %59 = load ptr, ptr getelementptr inbounds (%struct._zend_compiler_globals, ptr @compiler_globals, i64 0, i32 4), align 8
  %60 = getelementptr inbounds i8, ptr %59, i64 176
  %61 = load ptr, ptr %60, align 8
  %62 = zext i32 %56 to i64
  %63 = getelementptr inbounds %struct._zval_struct, ptr %61, i64 %62
  %64 = load i64, ptr %3, align 8
  store i64 %64, ptr %63, align 8
  %65 = getelementptr inbounds i8, ptr %63, i64 8
  store i32 4, ptr %65, align 8
  %66 = load ptr, ptr getelementptr inbounds (%struct._zend_compiler_globals, ptr @compiler_globals, i64 0, i32 4), align 8
  %67 = getelementptr inbounds i8, ptr %66, i64 176
  %68 = load ptr, ptr %67, align 8
  %69 = load i32, ptr %55, align 4
  %70 = zext i32 %69 to i64
  %71 = getelementptr inbounds %struct._zval_struct, ptr %68, i64 %70, i32 2
  store i32 1, ptr %71, align 4
  br label %.critedge

.critedge:                                        ; preds = %8, %17, %18, %22, %zend_add_literal.exit, %2
  ret void
}